target datalayout = "e-m:e-p270:32:32-p271:32:32-p272:64:64-i64:64-i128:128-f80:128-n8:16:32:64-S128"
target triple = "x86_64-pc-linux-gnu"

%struct._object = type { i64, ptr }
%struct._typeobject = type { %struct.PyVarObject, ptr, i64, i64, ptr, i64, ptr, ptr, ptr, ptr, ptr, ptr, ptr, ptr, ptr, ptr, ptr, ptr, ptr, i64, ptr, ptr, ptr, ptr, i64, ptr, ptr, ptr, ptr, ptr, ptr, ptr, ptr, ptr, i64, ptr, ptr, ptr, ptr, ptr, ptr, ptr, ptr, ptr, ptr, ptr, i32, ptr, ptr }
%struct.PyVarObject = type { %struct._object, i64 }
%class.ArgInfo = type <{ ptr, i8, i8, i8, i8, [4 x i8] }>
%struct.tagPyArrayObject_fields = type { %struct._object, ptr, i32, ptr, ptr, ptr, ptr, i32, ptr, ptr }

@_Py_NoneStruct = external global %struct._object, align 8
@PyFloat_Type = external global %struct._typeobject, align 8
@opencv_ARRAY_API = external global ptr, align 8
@PyComplex_Type = external global %struct._typeobject, align 8
@PyBool_Type = external global %struct._typeobject, align 8
@.str.23 = private unnamed_addr constant [38 x i8] c"Argument '%s' must be float, not bool\00", align 1
@.str.24 = private unnamed_addr constant [50 x i8] c"Argument '%s' can not be safely parsed to 'float'\00", align 1
@.str.25 = private unnamed_addr constant [42 x i8] c"Argument '%s' can't be treated as a float\00", align 1

; Function Attrs: mustprogress nounwind uwtable
define internal noundef i32 @_ZL12PyArray_NDIMPK16tagPyArrayObject(ptr noundef %0) #5 {
  %2 = alloca ptr, align 8
  store ptr %0, ptr %2, align 8
  %3 = load ptr, ptr %2, align 8
  %4 = getelementptr inbounds %struct.tagPyArrayObject_fields, ptr %3, i32 0, i32 2
  %5 = load i32, ptr %4, align 8
  ret i32 %5
}

; Function Attrs: mustprogress nounwind uwtable
define internal noundef i32 @_ZL11_Py_IS_TYPEPK7_objectPK11_typeobject(ptr noundef %0, ptr noundef %1) #5 {
  %3 = alloca ptr, align 8
  %4 = alloca ptr, align 8
  store ptr %0, ptr %3, align 8
  store ptr %1, ptr %4, align 8
  %5 = load ptr, ptr %3, align 8
  %6 = getelementptr inbounds %struct._object, ptr %5, i32 0, i32 1
  %7 = load ptr, ptr %6, align 8
  %8 = load ptr, ptr %4, align 8
  %9 = icmp eq ptr %7, %8
  %10 = zext i1 %9 to i32
  ret i32 %10
}

; Function Attrs: mustprogress nounwind uwtable
define internal noundef i32 @_ZL17PyType_HasFeatureP11_typeobjectm(ptr noundef %0, i64 noundef %1) #5 {
  %3 = alloca ptr, align 8
  %4 = alloca i64, align 8
  %5 = alloca i64, align 8
  store ptr %0, ptr %3, align 8
  store i64 %1, ptr %4, align 8
  %6 = load ptr, ptr %3, align 8
  %7 = getelementptr inbounds %struct._typeobject, ptr %6, i32 0, i32 19
  %8 = load i64, ptr %7, align 8
  store i64 %8, ptr %5, align 8
  %9 = load i64, ptr %5, align 8
  %10 = load i64, ptr %4, align 8
  %11 = and i64 %9, %10
  %12 = icmp ne i64 %11, 0
  %13 = zext i1 %12 to i32
  ret i32 %13
}

; Function Attrs: mustprogress uwtable
define internal noundef i32 @_ZL19_PyObject_TypeCheckP7_objectP11_typeobject(ptr noundef %0, ptr noundef %1) #4 {
  %3 = alloca ptr, align 8
  %4 = alloca ptr, align 8
  store ptr %0, ptr %3, align 8
  store ptr %1, ptr %4, align 8
  %5 = load ptr, ptr %3, align 8
  %6 = load ptr, ptr %4, align 8
  %7 = call noundef i32 @_ZL11_Py_IS_TYPEPK7_objectPK11_typeobject(ptr noundef %5, ptr noundef %6)
  %8 = icmp ne i32 %7, 0
  br i1 %8, label %16, label %9

9:                                                ; preds = %2
  %10 = load ptr, ptr %3, align 8
  %11 = getelementptr inbounds %struct._object, ptr %10, i32 0, i32 1
  %12 = load ptr, ptr %11, align 8
  %13 = load ptr, ptr %4, align 8
  %14 = call i32 @PyType_IsSubtype(ptr noundef %12, ptr noundef %13)
  %15 = icmp ne i32 %14, 0
  br label %16

16:                                               ; preds = %9, %2
  %17 = phi i1 [ true, %2 ], [ %15, %9 ]
  %18 = zext i1 %17 to i32
  ret i32 %18
}

; Function Attrs: mustprogress nounwind uwtable
define linkonce_odr hidden noundef zeroext i1 @_Z6isBoolP7_object(ptr noundef %0) #5 comdat personality ptr @__gxx_personality_v0 {
  %2 = alloca ptr, align 8
  store ptr %0, ptr %2, align 8
  %3 = load ptr, ptr %2, align 8
  %4 = load ptr, ptr @opencv_ARRAY_API, align 8
  %5 = getelementptr inbounds ptr, ptr %4, i64 8
  %6 = load ptr, ptr %5, align 8
  %7 = invoke noundef i32 @_ZL19_PyObject_TypeCheckP7_objectP11_typeobject(ptr noundef %3, ptr noundef %6)
          to label %8 unwind label %17

8:                                                ; preds = %1
  %9 = icmp ne i32 %7, 0
  br i1 %9, label %15, label %10

10:                                               ; preds = %8
  %11 = load ptr, ptr %2, align 8
  %12 = invoke noundef i32 @_ZL11_Py_IS_TYPEPK7_objectPK11_typeobject(ptr noundef %11, ptr noundef @PyBool_Type)
          to label %13 unwind label %17

13:                                               ; preds = %10
  %14 = icmp ne i32 %12, 0
  br label %15

15:                                               ; preds = %13, %8
  %16 = phi i1 [ true, %8 ], [ %14, %13 ]
  ret i1 %16

17:                                               ; preds = %10, %1
  %18 = landingpad { ptr, i32 }
          catch ptr null
  %19 = extractvalue { ptr, i32 } %18, 0
  call void @__clang_call_terminate(ptr %19) #11
  unreachable
}

; Function Attrs: mustprogress uwtable
define hidden noundef zeroext i1 @_Z11pyopencv_toIfEbP7_objectRT_RK7ArgInfo(ptr noundef %0, ptr noundef nonnull align 4 dereferenceable(4) %1, ptr noundef nonnull align 8 dereferenceable(12) %2) #4 {
  %4 = alloca i1, align 1
  %5 = alloca ptr, align 8
  %6 = alloca ptr, align 8
  %7 = alloca ptr, align 8
  %8 = alloca double, align 8
  %9 = alloca double, align 8
  %10 = alloca i8, align 1
  store ptr %0, ptr %5, align 8
  store ptr %1, ptr %6, align 8
  store ptr %2, ptr %7, align 8
  %11 = load ptr, ptr %5, align 8
  %12 = icmp ne ptr %11, null
  br i1 %12, label %13, label %16

13:                                               ; preds = %3
  %14 = load ptr, ptr %5, align 8
  %15 = icmp eq ptr %14, @_Py_NoneStruct
  br i1 %15, label %16, label %17

16:                                               ; preds = %13, %3
  store i1 true, ptr %4, align 1
  br label %103

17:                                               ; preds = %13
  %18 = load ptr, ptr %5, align 8
  %19 = call noundef zeroext i1 @_Z6isBoolP7_object(ptr noundef %18) #3
  br i1 %19, label %20, label %25

20:                                               ; preds = %17
  %21 = load ptr, ptr %7, align 8
  %22 = getelementptr inbounds %class.ArgInfo, ptr %21, i32 0, i32 0
  %23 = load ptr, ptr %22, align 8
  %24 = call noundef i32 (ptr, ...) @_Z7failmsgPKcz(ptr noundef @.str.23, ptr noundef %23)
  store i1 false, ptr %4, align 1
  br label %103

25:                                               ; preds = %17
  %26 = load ptr, ptr %5, align 8
  %27 = call noundef i32 @_ZL19_PyObject_TypeCheckP7_objectP11_typeobject(ptr noundef %26, ptr noundef @PyFloat_Type)
  %28 = icmp ne i32 %27, 0
  br i1 %28, label %43, label %29

29:                                               ; preds = %25
  %30 = load ptr, ptr %5, align 8
  %31 = call noundef i32 @_ZL19_PyObject_TypeCheckP7_objectP11_typeobject(ptr noundef %30, ptr noundef @PyComplex_Type)
  %32 = icmp ne i32 %31, 0
  br i1 %32, label %43, label %33

33:                                               ; preds = %29
  %34 = load ptr, ptr %5, align 8
  %35 = getelementptr inbounds %struct._object, ptr %34, i32 0, i32 1
  %36 = load ptr, ptr %35, align 8
  %37 = call noundef i32 @_ZL17PyType_HasFeatureP11_typeobjectm(ptr noundef %36, i64 noundef 16777216)
  %38 = icmp ne i32 %37, 0
  br i1 %38, label %43, label %39

39:                                               ; preds = %33
  %40 = load ptr, ptr %5, align 8
  %41 = call noundef i32 @_ZL11_Py_IS_TYPEPK7_objectPK11_typeobject(ptr noundef %40, ptr noundef @PyBool_Type)
  %42 = icmp ne i32 %41, 0
  br i1 %42, label %43, label %62

43:                                               ; preds = %39, %33, %29, %25
  %44 = load ptr, ptr %5, align 8
  %45 = getelementptr inbounds %struct._object, ptr %44, i32 0, i32 1
  %46 = load ptr, ptr %45, align 8
  %47 = call noundef i32 @_ZL17PyType_HasFeatureP11_typeobjectm(ptr noundef %46, i64 noundef 16777216)
  %48 = icmp ne i32 %47, 0
  br i1 %48, label %49, label %55

49:                                               ; preds = %43
  %50 = load ptr, ptr %5, align 8
  %51 = call double @PyLong_AsDouble(ptr noundef %50)
  store double %51, ptr %8, align 8
  %52 = load double, ptr %8, align 8
  %53 = fptrunc double %52 to float
  %54 = load ptr, ptr %6, align 8
  store float %53, ptr %54, align 4
  br label %61

55:                                               ; preds = %43
  %56 = load ptr, ptr %5, align 8
  %57 = call double @PyFloat_AsDouble(ptr noundef %56)
  store double %57, ptr %9, align 8
  %58 = load double, ptr %9, align 8
  %59 = fptrunc double %58 to float
  %60 = load ptr, ptr %6, align 8
  store float %59, ptr %60, align 4
  br label %61

61:                                               ; preds = %55, %49
  br label %99

62:                                               ; preds = %39
  %63 = load ptr, ptr %5, align 8
  %64 = load ptr, ptr @opencv_ARRAY_API, align 8
  %65 = getelementptr inbounds ptr, ptr %64, i64 10
  %66 = load ptr, ptr %65, align 8
  %67 = call noundef i32 @_ZL19_PyObject_TypeCheckP7_objectP11_typeobject(ptr noundef %63, ptr noundef %66)
  %68 = icmp ne i32 %67, 0
  br i1 %68, label %80, label %69

69:                                               ; preds = %62
  %70 = load ptr, ptr %5, align 8
  %71 = load ptr, ptr @opencv_ARRAY_API, align 8
  %72 = getelementptr inbounds ptr, ptr %71, i64 2
  %73 = load ptr, ptr %72, align 8
  %74 = call noundef i32 @_ZL19_PyObject_TypeCheckP7_objectP11_typeobject(ptr noundef %70, ptr noundef %73)
  %75 = icmp ne i32 %74, 0
  br i1 %75, label %76, label %93

76:                                               ; preds = %69
  %77 = load ptr, ptr %5, align 8
  %78 = call noundef i32 @_ZL12PyArray_NDIMPK16tagPyArrayObject(ptr noundef %77)
  %79 = icmp eq i32 %78, 0
  br i1 %79, label %80, label %93

80:                                               ; preds = %76, %62
  %81 = load ptr, ptr %5, align 8
  %82 = load ptr, ptr %6, align 8
  %83 = call noundef zeroext i1 @_ZN12_GLOBAL__N_116parseNumpyScalarIfEEbP7_objectRT_(ptr noundef %81, ptr noundef nonnull align 4 dereferenceable(4) %82)
  %84 = zext i1 %83 to i8
  store i8 %84, ptr %10, align 1
  %85 = load i8, ptr %10, align 1
  %86 = trunc i8 %85 to i1
  br i1 %86, label %92, label %87

87:                                               ; preds = %80
  %88 = load ptr, ptr %7, align 8
  %89 = getelementptr inbounds %class.ArgInfo, ptr %88, i32 0, i32 0
  %90 = load ptr, ptr %89, align 8
  %91 = call noundef i32 (ptr, ...) @_Z7failmsgPKcz(ptr noundef @.str.24, ptr noundef %90)
  store i1 false, ptr %4, align 1
  br label %103

92:                                               ; preds = %80
  br label %98

93:                                               ; preds = %76, %69
  %94 = load ptr, ptr %7, align 8
  %95 = getelementptr inbounds %class.ArgInfo, ptr %94, i32 0, i32 0
  %96 = load ptr, ptr %95, align 8
  %97 = call noundef i32 (ptr, ...) @_Z7failmsgPKcz(ptr noundef @.str.25, ptr noundef %96)
  store i1 false, ptr %4, align 1
  br label %103

98:                                               ; preds = %92
  br label %99

99:                                               ; preds = %98, %61
  %100 = call ptr @PyErr_Occurred()
  %101 = icmp ne ptr %100, null
  %102 = xor i1 %101, true
  store i1 %102, ptr %4, align 1
  br label %103

103:                                              ; preds = %99, %93, %87, %20, %16
  %104 = load i1, ptr %4, align 1
  ret i1 %104
}