; Function Attrs: mustprogress uwtable
define hidden noundef zeroext i1 @_Z11pyopencv_toIfEbP7_objectRT_RK7ArgInfo(ptr noundef %0, ptr noundef nonnull align 4 dereferenceable(4) %1, ptr nocapture noundef nonnull readonly align 8 dereferenceable(12) %2) local_unnamed_addr #3 personality ptr @__gxx_personality_v0 {
  %4 = icmp eq ptr %0, null
  %5 = icmp eq ptr %0, @_Py_NoneStruct
  %or.cond = or i1 %4, %5
  br i1 %or.cond, label %55, label %6

6:                                                ; preds = %3
  %7 = load ptr, ptr @opencv_ARRAY_API, align 8
  %8 = getelementptr inbounds i8, ptr %7, i64 64
  %9 = load ptr, ptr %8, align 8
  %10 = getelementptr i8, ptr %0, i64 8
  %.val2.i = load ptr, ptr %10, align 8
  %.not.i.i = icmp eq ptr %.val2.i, %9
  br i1 %.not.i.i, label %_Z6isBoolP7_object.exit.thread, label %11

11:                                               ; preds = %6
  %12 = invoke i32 @PyType_IsSubtype(ptr noundef %.val2.i, ptr noundef %9)
          to label %_ZL19_PyObject_TypeCheckP7_objectP11_typeobject.exit.i unwind label %13

_ZL19_PyObject_TypeCheckP7_objectP11_typeobject.exit.i: ; preds = %11
  %.not4.i = icmp eq i32 %12, 0
  br i1 %.not4.i, label %_Z6isBoolP7_object.exit, label %_Z6isBoolP7_object.exit.thread

13:                                               ; preds = %11
  %14 = landingpad { ptr, i32 }
          catch ptr null
  %15 = extractvalue { ptr, i32 } %14, 0
  tail call void @__clang_call_terminate(ptr %15) #13
  unreachable

_Z6isBoolP7_object.exit:                          ; preds = %_ZL19_PyObject_TypeCheckP7_objectP11_typeobject.exit.i
  %.val.i = load ptr, ptr %10, align 8
  %16 = icmp eq ptr %.val.i, @PyBool_Type
  br i1 %16, label %_Z6isBoolP7_object.exit.thread, label %19

_Z6isBoolP7_object.exit.thread:                   ; preds = %6, %_ZL19_PyObject_TypeCheckP7_objectP11_typeobject.exit.i, %_Z6isBoolP7_object.exit
  %17 = load ptr, ptr %2, align 8
  %18 = tail call noundef i32 (ptr, ...) @_Z7failmsgPKcz(ptr noundef nonnull @.str.23, ptr noundef %17)
  br label %55

19:                                               ; preds = %_Z6isBoolP7_object.exit
  %.not.i = icmp eq ptr %.val.i, @PyFloat_Type
  br i1 %.not.i, label %_ZL19_PyObject_TypeCheckP7_objectP11_typeobject.exit.thread, label %_ZL19_PyObject_TypeCheckP7_objectP11_typeobject.exit

_ZL19_PyObject_TypeCheckP7_objectP11_typeobject.exit: ; preds = %19
  %20 = tail call i32 @PyType_IsSubtype(ptr noundef %.val.i, ptr noundef nonnull @PyFloat_Type)
  %.not49 = icmp eq i32 %20, 0
  %.pre54 = load ptr, ptr %10, align 8
  br i1 %.not49, label %21, label %_ZL19_PyObject_TypeCheckP7_objectP11_typeobject.exit.thread

21:                                               ; preds = %_ZL19_PyObject_TypeCheckP7_objectP11_typeobject.exit
  %.not.i39 = icmp eq ptr %.pre54, @PyComplex_Type
  br i1 %.not.i39, label %_ZL19_PyObject_TypeCheckP7_objectP11_typeobject.exit.thread, label %_ZL19_PyObject_TypeCheckP7_objectP11_typeobject.exit40

_ZL19_PyObject_TypeCheckP7_objectP11_typeobject.exit40: ; preds = %21
  %22 = tail call i32 @PyType_IsSubtype(ptr noundef %.pre54, ptr noundef nonnull @PyComplex_Type)
  %.not = icmp eq i32 %22, 0
  %.pre = load ptr, ptr %10, align 8
  br i1 %.not, label %23, label %_ZL19_PyObject_TypeCheckP7_objectP11_typeobject.exit.thread

23:                                               ; preds = %_ZL19_PyObject_TypeCheckP7_objectP11_typeobject.exit40
  %24 = getelementptr i8, ptr %.pre, i64 168
  %.val32 = load i64, ptr %24, align 8
  %25 = and i64 %.val32, 16777216
  %.not26 = icmp ne i64 %25, 0
  %.not50 = icmp eq ptr %.pre, @PyBool_Type
  %or.cond53 = or i1 %.not50, %.not26
  br i1 %or.cond53, label %_ZL19_PyObject_TypeCheckP7_objectP11_typeobject.exit.thread, label %33

_ZL19_PyObject_TypeCheckP7_objectP11_typeobject.exit.thread: ; preds = %21, %19, %23, %_ZL19_PyObject_TypeCheckP7_objectP11_typeobject.exit40, %_ZL19_PyObject_TypeCheckP7_objectP11_typeobject.exit
  %26 = phi ptr [ @PyComplex_Type, %21 ], [ @PyFloat_Type, %19 ], [ %.pre, %23 ], [ %.pre, %_ZL19_PyObject_TypeCheckP7_objectP11_typeobject.exit40 ], [ %.pre54, %_ZL19_PyObject_TypeCheckP7_objectP11_typeobject.exit ]
  %27 = getelementptr i8, ptr %26, i64 168
  %.val = load i64, ptr %27, align 8
  %28 = and i64 %.val, 16777216
  %.not30 = icmp eq i64 %28, 0
  br i1 %.not30, label %31, label %29

29:                                               ; preds = %_ZL19_PyObject_TypeCheckP7_objectP11_typeobject.exit.thread
  %30 = tail call double @PyLong_AsDouble(ptr noundef nonnull %0)
  br label %.sink.split

31:                                               ; preds = %_ZL19_PyObject_TypeCheckP7_objectP11_typeobject.exit.thread
  %32 = tail call double @PyFloat_AsDouble(ptr noundef nonnull %0)
  br label %.sink.split

33:                                               ; preds = %23
  %34 = load ptr, ptr @opencv_ARRAY_API, align 8
  %35 = getelementptr inbounds i8, ptr %34, i64 80
  %36 = load ptr, ptr %35, align 8
  %.not.i41 = icmp eq ptr %.pre, %36
  br i1 %.not.i41, label %_ZL19_PyObject_TypeCheckP7_objectP11_typeobject.exit42.thread, label %_ZL19_PyObject_TypeCheckP7_objectP11_typeobject.exit42

_ZL19_PyObject_TypeCheckP7_objectP11_typeobject.exit42: ; preds = %33
  %37 = tail call i32 @PyType_IsSubtype(ptr noundef nonnull %.pre, ptr noundef %36)
  %.not51 = icmp eq i32 %37, 0
  br i1 %.not51, label %38, label %_ZL19_PyObject_TypeCheckP7_objectP11_typeobject.exit42.thread

38:                                               ; preds = %_ZL19_PyObject_TypeCheckP7_objectP11_typeobject.exit42
  %39 = load ptr, ptr @opencv_ARRAY_API, align 8
  %40 = getelementptr inbounds i8, ptr %39, i64 16
  %41 = load ptr, ptr %40, align 8
  %.val34 = load ptr, ptr %10, align 8
  %.not.i43 = icmp eq ptr %.val34, %41
  br i1 %.not.i43, label %_ZL19_PyObject_TypeCheckP7_objectP11_typeobject.exit44.thread, label %_ZL19_PyObject_TypeCheckP7_objectP11_typeobject.exit44

_ZL19_PyObject_TypeCheckP7_objectP11_typeobject.exit44: ; preds = %38
  %42 = tail call i32 @PyType_IsSubtype(ptr noundef %.val34, ptr noundef %41)
  %.not52 = icmp eq i32 %42, 0
  br i1 %.not52, label %49, label %_ZL19_PyObject_TypeCheckP7_objectP11_typeobject.exit44.thread

_ZL19_PyObject_TypeCheckP7_objectP11_typeobject.exit44.thread: ; preds = %38, %_ZL19_PyObject_TypeCheckP7_objectP11_typeobject.exit44
  %43 = getelementptr i8, ptr %0, i64 24
  %.val38 = load i32, ptr %43, align 8
  %44 = icmp eq i32 %.val38, 0
  br i1 %44, label %_ZL19_PyObject_TypeCheckP7_objectP11_typeobject.exit42.thread, label %49

_ZL19_PyObject_TypeCheckP7_objectP11_typeobject.exit42.thread: ; preds = %33, %_ZL19_PyObject_TypeCheckP7_objectP11_typeobject.exit44.thread, %_ZL19_PyObject_TypeCheckP7_objectP11_typeobject.exit42
  %45 = tail call fastcc noundef zeroext i1 @_ZN12_GLOBAL__N_116parseNumpyScalarIfEEbP7_objectRT_(ptr noundef nonnull %0, ptr noundef nonnull align 4 dereferenceable(4) %1)
  br i1 %45, label %53, label %46

46:                                               ; preds = %_ZL19_PyObject_TypeCheckP7_objectP11_typeobject.exit42.thread
  %47 = load ptr, ptr %2, align 8
  %48 = tail call noundef i32 (ptr, ...) @_Z7failmsgPKcz(ptr noundef nonnull @.str.24, ptr noundef %47)
  br label %55

49:                                               ; preds = %_ZL19_PyObject_TypeCheckP7_objectP11_typeobject.exit44.thread, %_ZL19_PyObject_TypeCheckP7_objectP11_typeobject.exit44
  %50 = load ptr, ptr %2, align 8
  %51 = tail call noundef i32 (ptr, ...) @_Z7failmsgPKcz(ptr noundef nonnull @.str.25, ptr noundef %50)
  br label %55

.sink.split:                                      ; preds = %31, %29
  %.sink55 = phi double [ %30, %29 ], [ %32, %31 ]
  %52 = fptrunc double %.sink55 to float
  store float %52, ptr %1, align 4
  br label %53

53:                                               ; preds = %.sink.split, %_ZL19_PyObject_TypeCheckP7_objectP11_typeobject.exit42.thread
  %54 = tail call ptr @PyErr_Occurred()
  %.not31 = icmp eq ptr %54, null
  br label %55

55:                                               ; preds = %3, %53, %49, %46, %_Z6isBoolP7_object.exit.thread
  %.0 = phi i1 [ false, %_Z6isBoolP7_object.exit.thread ], [ %.not31, %53 ], [ false, %46 ], [ false, %49 ], [ true, %3 ]
  ret i1 %.0
}